target datalayout = "e-m:e-p270:32:32-p271:32:32-p272:64:64-i64:64-i128:128-f80:128-n8:16:32:64-S128"
target triple = "x86_64-pc-linux-gnu"

%"class.std::__cxx11::basic_string" = type { %"struct.std::__cxx11::basic_string<char>::_Alloc_hider", i64, %union.anon }
%"struct.std::__cxx11::basic_string<char>::_Alloc_hider" = type { ptr }
%union.anon = type { i64, [8 x i8] }
%"class.std::unique_ptr.12" = type { %"struct.std::__uniq_ptr_data.13" }
%"struct.std::__uniq_ptr_data.13" = type { %"class.std::__uniq_ptr_impl.14" }
%"class.std::__uniq_ptr_impl.14" = type { %"class.std::tuple.15" }
%"class.std::tuple.15" = type { %"struct.std::_Tuple_impl.16" }
%"struct.std::_Tuple_impl.16" = type { %"struct.std::_Head_base.19" }
%"struct.std::_Head_base.19" = type { ptr }
%struct.stat = type { i64, i64, i64, i32, i32, i32, i32, i64, i64, i64, i64, %struct.timespec, %struct.timespec, %struct.timespec, [3 x i64] }
%struct.timespec = type { i64, i64 }

@stderr = external global ptr, align 8
@.str.24 = private unnamed_addr constant [36 x i8] c"Failed to open input file '%s': %s\0A\00", align 1
@.str.25 = private unnamed_addr constant [36 x i8] c"Failed to stat input file '%s': %s\0A\00", align 1
@.str.26 = private unnamed_addr constant [24 x i8] c"%s: not a regular file\0A\00", align 1

; Function Attrs: mustprogress nounwind uwtable
define linkonce_odr hidden noundef nonnull align 1 dereferenceable(1) ptr @_ZNSt10_Head_baseILm1E12close_deleteLb1EE7_M_headERS1_(ptr noundef nonnull align 1 dereferenceable(1) %0) #4 comdat align 2 {
  %2 = alloca ptr, align 8
  store ptr %0, ptr %2, align 8, !tbaa !145
  %3 = load ptr, ptr %2, align 8, !tbaa !145
  ret ptr %3
}

; Function Attrs: mustprogress nounwind uwtable
define linkonce_odr hidden void @_ZNSt10_Head_baseILm1E12close_deleteLb1EEC2Ev(ptr noundef nonnull align 1 dereferenceable(1) %0) unnamed_addr #4 comdat align 2 {
  %2 = alloca ptr, align 8
  store ptr %0, ptr %2, align 8, !tbaa !145
  ret void
}

; Function Attrs: mustprogress nounwind uwtable
define linkonce_odr hidden noundef nonnull align 1 dereferenceable(1) ptr @_ZNSt11_Tuple_implILm1EJ12close_deleteEE7_M_headERS1_(ptr noundef nonnull align 1 dereferenceable(1) %0) #4 comdat align 2 {
  %2 = alloca ptr, align 8
  store ptr %0, ptr %2, align 8, !tbaa !139
  %3 = load ptr, ptr %2, align 8, !tbaa !139
  %4 = call noundef nonnull align 1 dereferenceable(1) ptr @_ZNSt10_Head_baseILm1E12close_deleteLb1EE7_M_headERS1_(ptr noundef nonnull align 1 dereferenceable(1) %3) #17
  ret ptr %4
}

; Function Attrs: mustprogress nounwind uwtable
define linkonce_odr noundef nonnull align 8 dereferenceable(8) ptr @_ZNSt10_Head_baseILm0EPiLb0EE7_M_headERS1_(ptr noundef nonnull align 8 dereferenceable(8) %0) #4 comdat align 2 {
  %2 = alloca ptr, align 8
  store ptr %0, ptr %2, align 8, !tbaa !141
  %3 = load ptr, ptr %2, align 8, !tbaa !141
  %4 = getelementptr inbounds nuw %"struct.std::_Head_base.19", ptr %3, i32 0, i32 0
  ret ptr %4
}

; Function Attrs: mustprogress nounwind uwtable
define linkonce_odr void @_ZNSt10_Head_baseILm0EPiLb0EEC2Ev(ptr noundef nonnull align 8 dereferenceable(8) %0) unnamed_addr #4 comdat align 2 {
  %2 = alloca ptr, align 8
  store ptr %0, ptr %2, align 8, !tbaa !141
  %3 = load ptr, ptr %2, align 8
  %4 = getelementptr inbounds nuw %"struct.std::_Head_base.19", ptr %3, i32 0, i32 0
  store ptr null, ptr %4, align 8, !tbaa !143
  ret void
}

; Function Attrs: mustprogress uwtable
define linkonce_odr hidden void @_ZNSt11_Tuple_implILm1EJ12close_deleteEEC2Ev(ptr noundef nonnull align 1 dereferenceable(1) %0) unnamed_addr #0 comdat align 2 {
  %2 = alloca ptr, align 8
  store ptr %0, ptr %2, align 8, !tbaa !139
  %3 = load ptr, ptr %2, align 8
  call void @_ZNSt10_Head_baseILm1E12close_deleteLb1EEC2Ev(ptr noundef nonnull align 1 dereferenceable(1) %3)
  ret void
}

; Function Attrs: mustprogress nounwind uwtable
define linkonce_odr hidden noundef nonnull align 1 dereferenceable(1) ptr @_ZSt12__get_helperILm1E12close_deleteJEERT0_RSt11_Tuple_implIXT_EJS1_DpT1_EE(ptr noundef nonnull align 1 dereferenceable(1) %0) #4 comdat {
  %2 = alloca ptr, align 8
  store ptr %0, ptr %2, align 8, !tbaa !139
  %3 = load ptr, ptr %2, align 8, !tbaa !139
  %4 = call noundef nonnull align 1 dereferenceable(1) ptr @_ZNSt11_Tuple_implILm1EJ12close_deleteEE7_M_headERS1_(ptr noundef nonnull align 1 dereferenceable(1) %3) #17
  ret ptr %4
}

; Function Attrs: mustprogress nounwind uwtable
define linkonce_odr hidden noundef nonnull align 8 dereferenceable(8) ptr @_ZNSt11_Tuple_implILm0EJPi12close_deleteEE7_M_headERS2_(ptr noundef nonnull align 8 dereferenceable(8) %0) #4 comdat align 2 {
  %2 = alloca ptr, align 8
  store ptr %0, ptr %2, align 8, !tbaa !137
  %3 = load ptr, ptr %2, align 8, !tbaa !137
  %4 = call noundef nonnull align 8 dereferenceable(8) ptr @_ZNSt10_Head_baseILm0EPiLb0EE7_M_headERS1_(ptr noundef nonnull align 8 dereferenceable(8) %3) #17
  ret ptr %4
}

; Function Attrs: mustprogress uwtable
define linkonce_odr hidden void @_ZNSt11_Tuple_implILm0EJPi12close_deleteEEC2Ev(ptr noundef nonnull align 8 dereferenceable(8) %0) unnamed_addr #0 comdat align 2 {
  %2 = alloca ptr, align 8
  store ptr %0, ptr %2, align 8, !tbaa !137
  %3 = load ptr, ptr %2, align 8
  call void @_ZNSt11_Tuple_implILm1EJ12close_deleteEEC2Ev(ptr noundef nonnull align 1 dereferenceable(1) %3)
  call void @_ZNSt10_Head_baseILm0EPiLb0EEC2Ev(ptr noundef nonnull align 8 dereferenceable(8) %3)
  ret void
}

; Function Attrs: mustprogress nounwind uwtable
define linkonce_odr hidden noundef nonnull align 1 dereferenceable(1) ptr @_ZSt3getILm1EJPi12close_deleteEERNSt13tuple_elementIXT_ESt5tupleIJDpT0_EEE4typeERS6_(ptr noundef nonnull align 8 dereferenceable(8) %0) #4 comdat {
  %2 = alloca ptr, align 8
  store ptr %0, ptr %2, align 8, !tbaa !135
  %3 = load ptr, ptr %2, align 8, !tbaa !135
  %4 = call noundef nonnull align 1 dereferenceable(1) ptr @_ZSt12__get_helperILm1E12close_deleteJEERT0_RSt11_Tuple_implIXT_EJS1_DpT1_EE(ptr noundef nonnull align 1 dereferenceable(1) %3) #17
  ret ptr %4
}

; Function Attrs: mustprogress nounwind uwtable
define linkonce_odr hidden noundef nonnull align 8 dereferenceable(8) ptr @_ZSt12__get_helperILm0EPiJ12close_deleteEERT0_RSt11_Tuple_implIXT_EJS2_DpT1_EE(ptr noundef nonnull align 8 dereferenceable(8) %0) #4 comdat {
  %2 = alloca ptr, align 8
  store ptr %0, ptr %2, align 8, !tbaa !137
  %3 = load ptr, ptr %2, align 8, !tbaa !137
  %4 = call noundef nonnull align 8 dereferenceable(8) ptr @_ZNSt11_Tuple_implILm0EJPi12close_deleteEE7_M_headERS2_(ptr noundef nonnull align 8 dereferenceable(8) %3) #17
  ret ptr %4
}

; Function Attrs: mustprogress nounwind uwtable
define linkonce_odr hidden void @_ZNSt5tupleIJPi12close_deleteEEC2ILb1ETnNSt9enable_ifIXclsr17_TupleConstraintsIXT_ES0_S1_EE37__is_implicitly_default_constructibleEEbE4typeELb1EEEv(ptr noundef nonnull align 8 dereferenceable(8) %0) unnamed_addr #4 comdat align 2 personality ptr @__gxx_personality_v0 {
  %2 = alloca ptr, align 8
  store ptr %0, ptr %2, align 8, !tbaa !135
  %3 = load ptr, ptr %2, align 8
  invoke void @_ZNSt11_Tuple_implILm0EJPi12close_deleteEEC2Ev(ptr noundef nonnull align 8 dereferenceable(8) %3)
          to label %4 unwind label %5

4:                                                ; preds = %1
  ret void

5:                                                ; preds = %1
  %6 = landingpad { ptr, i32 }
          catch ptr null
  %7 = extractvalue { ptr, i32 } %6, 0
  call void @__clang_call_terminate(ptr %7) #18
  unreachable
}

; Function Attrs: mustprogress nounwind uwtable
define linkonce_odr hidden noundef nonnull align 1 dereferenceable(1) ptr @_ZNSt15__uniq_ptr_implIi12close_deleteE10_M_deleterEv(ptr noundef nonnull align 8 dereferenceable(8) %0) #4 comdat align 2 {
  %2 = alloca ptr, align 8
  store ptr %0, ptr %2, align 8, !tbaa !133
  %3 = load ptr, ptr %2, align 8
  %4 = getelementptr inbounds nuw %"class.std::__uniq_ptr_impl.14", ptr %3, i32 0, i32 0
  %5 = call noundef nonnull align 1 dereferenceable(1) ptr @_ZSt3getILm1EJPi12close_deleteEERNSt13tuple_elementIXT_ESt5tupleIJDpT0_EEE4typeERS6_(ptr noundef nonnull align 8 dereferenceable(8) %4) #17
  ret ptr %5
}

; Function Attrs: mustprogress nounwind uwtable
define linkonce_odr hidden noundef nonnull align 8 dereferenceable(8) ptr @_ZSt3getILm0EJPi12close_deleteEERNSt13tuple_elementIXT_ESt5tupleIJDpT0_EEE4typeERS6_(ptr noundef nonnull align 8 dereferenceable(8) %0) #4 comdat {
  %2 = alloca ptr, align 8
  store ptr %0, ptr %2, align 8, !tbaa !135
  %3 = load ptr, ptr %2, align 8, !tbaa !135
  %4 = call noundef nonnull align 8 dereferenceable(8) ptr @_ZSt12__get_helperILm0EPiJ12close_deleteEERT0_RSt11_Tuple_implIXT_EJS2_DpT1_EE(ptr noundef nonnull align 8 dereferenceable(8) %3) #17
  ret ptr %4
}

; Function Attrs: mustprogress nounwind uwtable
define linkonce_odr hidden void @_ZNSt15__uniq_ptr_implIi12close_deleteEC2EPi(ptr noundef nonnull align 8 dereferenceable(8) %0, ptr noundef %1) unnamed_addr #4 comdat align 2 {
  %3 = alloca ptr, align 8
  %4 = alloca ptr, align 8
  store ptr %0, ptr %3, align 8, !tbaa !133
  store ptr %1, ptr %4, align 8, !tbaa !101
  %5 = load ptr, ptr %3, align 8
  %6 = getelementptr inbounds nuw %"class.std::__uniq_ptr_impl.14", ptr %5, i32 0, i32 0
  call void @_ZNSt5tupleIJPi12close_deleteEEC2ILb1ETnNSt9enable_ifIXclsr17_TupleConstraintsIXT_ES0_S1_EE37__is_implicitly_default_constructibleEEbE4typeELb1EEEv(ptr noundef nonnull align 8 dereferenceable(8) %6) #17
  %7 = load ptr, ptr %4, align 8, !tbaa !101
  %8 = call noundef nonnull align 8 dereferenceable(8) ptr @_ZNSt15__uniq_ptr_implIi12close_deleteE6_M_ptrEv(ptr noundef nonnull align 8 dereferenceable(8) %5) #17
  store ptr %7, ptr %8, align 8, !tbaa !101
  ret void
}

; Function Attrs: mustprogress uwtable
define linkonce_odr hidden void @_ZN12close_deleteclEPi(ptr noundef nonnull align 1 dereferenceable(1) %0, ptr noundef %1) #0 comdat align 2 {
  %3 = alloca ptr, align 8
  %4 = alloca ptr, align 8
  store ptr %0, ptr %3, align 8, !tbaa !147
  store ptr %1, ptr %4, align 8, !tbaa !101
  %5 = load ptr, ptr %4, align 8, !tbaa !101
  %6 = load i32, ptr %5, align 4, !tbaa !43
  %7 = call i32 @close(i32 noundef %6)
  ret void
}

; Function Attrs: mustprogress nounwind uwtable
define linkonce_odr hidden noundef nonnull align 1 dereferenceable(1) ptr @_ZNSt10unique_ptrIi12close_deleteE11get_deleterEv(ptr noundef nonnull align 8 dereferenceable(8) %0) #4 comdat align 2 {
  %2 = alloca ptr, align 8
  store ptr %0, ptr %2, align 8, !tbaa !127
  %3 = load ptr, ptr %2, align 8
  %4 = getelementptr inbounds nuw %"class.std::unique_ptr.12", ptr %3, i32 0, i32 0
  %5 = call noundef nonnull align 1 dereferenceable(1) ptr @_ZNSt15__uniq_ptr_implIi12close_deleteE10_M_deleterEv(ptr noundef nonnull align 8 dereferenceable(8) %4) #17
  ret ptr %5
}

; Function Attrs: mustprogress nounwind uwtable
define linkonce_odr hidden noundef nonnull align 8 dereferenceable(8) ptr @_ZNSt15__uniq_ptr_implIi12close_deleteE6_M_ptrEv(ptr noundef nonnull align 8 dereferenceable(8) %0) #4 comdat align 2 {
  %2 = alloca ptr, align 8
  store ptr %0, ptr %2, align 8, !tbaa !133
  %3 = load ptr, ptr %2, align 8
  %4 = getelementptr inbounds nuw %"class.std::__uniq_ptr_impl.14", ptr %3, i32 0, i32 0
  %5 = call noundef nonnull align 8 dereferenceable(8) ptr @_ZSt3getILm0EJPi12close_deleteEERNSt13tuple_elementIXT_ESt5tupleIJDpT0_EEE4typeERS6_(ptr noundef nonnull align 8 dereferenceable(8) %4) #17
  ret ptr %5
}

; Function Attrs: mustprogress nounwind uwtable
define linkonce_odr hidden noundef ptr @_ZNSt15__uniq_ptr_implIi12close_deleteE7releaseEv(ptr noundef nonnull align 8 dereferenceable(8) %0) #4 comdat align 2 {
  %2 = alloca ptr, align 8
  %3 = alloca ptr, align 8
  store ptr %0, ptr %2, align 8, !tbaa !133
  %4 = load ptr, ptr %2, align 8
  call void @llvm.lifetime.start.p0(i64 8, ptr %3) #17
  %5 = call noundef nonnull align 8 dereferenceable(8) ptr @_ZNSt15__uniq_ptr_implIi12close_deleteE6_M_ptrEv(ptr noundef nonnull align 8 dereferenceable(8) %4) #17
  %6 = load ptr, ptr %5, align 8, !tbaa !101
  store ptr %6, ptr %3, align 8, !tbaa !101
  %7 = call noundef nonnull align 8 dereferenceable(8) ptr @_ZNSt15__uniq_ptr_implIi12close_deleteE6_M_ptrEv(ptr noundef nonnull align 8 dereferenceable(8) %4) #17
  store ptr null, ptr %7, align 8, !tbaa !101
  %8 = load ptr, ptr %3, align 8, !tbaa !101
  call void @llvm.lifetime.end.p0(i64 8, ptr %3) #17
  ret ptr %8
}

; Function Attrs: inlinehint mustprogress uwtable
define linkonce_odr hidden void @_ZNSt15__uniq_ptr_dataIi12close_deleteLb1ELb1EECI2St15__uniq_ptr_implIiS0_EEPi(ptr noundef nonnull align 8 dereferenceable(8) %0, ptr noundef %1) unnamed_addr #13 comdat align 2 {
  %3 = alloca ptr, align 8
  %4 = alloca ptr, align 8
  store ptr %0, ptr %3, align 8, !tbaa !131
  store ptr %1, ptr %4, align 8, !tbaa !101
  %5 = load ptr, ptr %3, align 8
  %6 = load ptr, ptr %4, align 8, !tbaa !101
  call void @_ZNSt15__uniq_ptr_implIi12close_deleteEC2EPi(ptr noundef nonnull align 8 dereferenceable(8) %5, ptr noundef %6)
  ret void
}

; Function Attrs: mustprogress nounwind uwtable
define available_externally noundef ptr @_ZNKSt7__cxx1112basic_stringIcSt11char_traitsIcESaIcEE7_M_dataEv(ptr noundef nonnull align 8 dereferenceable(32) %0) #4 align 2 {
  %2 = alloca ptr, align 8
  store ptr %0, ptr %2, align 8, !tbaa !15
  %3 = load ptr, ptr %2, align 8
  %4 = getelementptr inbounds nuw %"class.std::__cxx11::basic_string", ptr %3, i32 0, i32 0
  %5 = getelementptr inbounds nuw %"struct.std::__cxx11::basic_string<char>::_Alloc_hider", ptr %4, i32 0, i32 0
  %6 = load ptr, ptr %5, align 8, !tbaa !75
  ret ptr %6
}

; Function Attrs: mustprogress nounwind uwtable
define linkonce_odr hidden void @_ZNSt10unique_ptrIi12close_deleteED2Ev(ptr noundef nonnull align 8 dereferenceable(8) %0) unnamed_addr #4 comdat align 2 personality ptr @__gxx_personality_v0 {
  %2 = alloca ptr, align 8
  %3 = alloca ptr, align 8
  store ptr %0, ptr %2, align 8, !tbaa !127
  %4 = load ptr, ptr %2, align 8
  call void @llvm.lifetime.start.p0(i64 8, ptr %3) #17
  %5 = getelementptr inbounds nuw %"class.std::unique_ptr.12", ptr %4, i32 0, i32 0
  %6 = call noundef nonnull align 8 dereferenceable(8) ptr @_ZNSt15__uniq_ptr_implIi12close_deleteE6_M_ptrEv(ptr noundef nonnull align 8 dereferenceable(8) %5) #17
  store ptr %6, ptr %3, align 8, !tbaa !129
  %7 = load ptr, ptr %3, align 8, !tbaa !129
  %8 = load ptr, ptr %7, align 8, !tbaa !101
  %9 = icmp ne ptr %8, null
  br i1 %9, label %10, label %15

10:                                               ; preds = %1
  %11 = call noundef nonnull align 1 dereferenceable(1) ptr @_ZNSt10unique_ptrIi12close_deleteE11get_deleterEv(ptr noundef nonnull align 8 dereferenceable(8) %4) #17
  %12 = load ptr, ptr %3, align 8, !tbaa !129
  %13 = load ptr, ptr %12, align 8, !tbaa !101
  invoke void @_ZN12close_deleteclEPi(ptr noundef nonnull align 1 dereferenceable(1) %11, ptr noundef %13)
          to label %14 unwind label %17

14:                                               ; preds = %10
  br label %15

15:                                               ; preds = %14, %1
  %16 = load ptr, ptr %3, align 8, !tbaa !129
  store ptr null, ptr %16, align 8, !tbaa !101
  call void @llvm.lifetime.end.p0(i64 8, ptr %3) #17
  ret void

17:                                               ; preds = %10
  %18 = landingpad { ptr, i32 }
          catch ptr null
  %19 = extractvalue { ptr, i32 } %18, 0
  call void @__clang_call_terminate(ptr %19) #18
  unreachable
}

; Function Attrs: mustprogress nounwind uwtable
define linkonce_odr hidden noundef ptr @_ZNSt10unique_ptrIi12close_deleteE7releaseEv(ptr noundef nonnull align 8 dereferenceable(8) %0) #4 comdat align 2 {
  %2 = alloca ptr, align 8
  store ptr %0, ptr %2, align 8, !tbaa !127
  %3 = load ptr, ptr %2, align 8
  %4 = getelementptr inbounds nuw %"class.std::unique_ptr.12", ptr %3, i32 0, i32 0
  %5 = call noundef ptr @_ZNSt15__uniq_ptr_implIi12close_deleteE7releaseEv(ptr noundef nonnull align 8 dereferenceable(8) %4) #17
  ret ptr %5
}

; Function Attrs: mustprogress nounwind uwtable
define linkonce_odr hidden void @_ZNSt10unique_ptrIi12close_deleteEC2IS0_vEEPi(ptr noundef nonnull align 8 dereferenceable(8) %0, ptr noundef %1) unnamed_addr #4 comdat align 2 personality ptr @__gxx_personality_v0 {
  %3 = alloca ptr, align 8
  %4 = alloca ptr, align 8
  store ptr %0, ptr %3, align 8, !tbaa !127
  store ptr %1, ptr %4, align 8, !tbaa !101
  %5 = load ptr, ptr %3, align 8
  %6 = getelementptr inbounds nuw %"class.std::unique_ptr.12", ptr %5, i32 0, i32 0
  %7 = load ptr, ptr %4, align 8, !tbaa !101
  invoke void @_ZNSt15__uniq_ptr_dataIi12close_deleteLb1ELb1EECI2St15__uniq_ptr_implIiS0_EEPi(ptr noundef nonnull align 8 dereferenceable(8) %6, ptr noundef %7)
          to label %8 unwind label %9

8:                                                ; preds = %2
  ret void

9:                                                ; preds = %2
  %10 = landingpad { ptr, i32 }
          catch ptr null
  %11 = extractvalue { ptr, i32 } %10, 0
  call void @__clang_call_terminate(ptr %11) #18
  unreachable
}

; Function Attrs: mustprogress nounwind uwtable
define available_externally noundef ptr @_ZNKSt7__cxx1112basic_stringIcSt11char_traitsIcESaIcEE5c_strEv(ptr noundef nonnull align 8 dereferenceable(32) %0) #4 align 2 {
  %2 = alloca ptr, align 8
  store ptr %0, ptr %2, align 8, !tbaa !15
  %3 = load ptr, ptr %2, align 8
  %4 = call noundef ptr @_ZNKSt7__cxx1112basic_stringIcSt11char_traitsIcESaIcEE7_M_dataEv(ptr noundef nonnull align 8 dereferenceable(32) %3)
  ret ptr %4
}

; Function Attrs: mustprogress uwtable
define internal noundef zeroext i1 @_ZL8OpenFilePiRKNSt7__cxx1112basic_stringIcSt11char_traitsIcESaIcEEE(ptr noundef %0, ptr noundef nonnull align 8 dereferenceable(32) %1) #0 {
  %3 = alloca i1, align 1
  %4 = alloca ptr, align 8
  %5 = alloca ptr, align 8
  %6 = alloca i32, align 4
  %7 = alloca i32, align 4
  %8 = alloca %"class.std::unique_ptr.12", align 8
  %9 = alloca %struct.stat, align 8
  store ptr %0, ptr %4, align 8, !tbaa !101
  store ptr %1, ptr %5, align 8, !tbaa !15
  %10 = load ptr, ptr %4, align 8, !tbaa !101
  store i32 -1, ptr %10, align 4, !tbaa !43
  call void @llvm.lifetime.start.p0(i64 4, ptr %6) #17
  %11 = load ptr, ptr %5, align 8, !tbaa !15
  %12 = call noundef ptr @_ZNKSt7__cxx1112basic_stringIcSt11char_traitsIcESaIcEE5c_strEv(ptr noundef nonnull align 8 dereferenceable(32) %11) #17
  %13 = call i32 (ptr, i32, ...) @open(ptr noundef %12, i32 noundef 0)
  store i32 %13, ptr %6, align 4, !tbaa !43
  %14 = load i32, ptr %6, align 4, !tbaa !43
  %15 = icmp slt i32 %14, 0
  br i1 %15, label %16, label %24

16:                                               ; preds = %2
  %17 = load ptr, ptr @stderr, align 8, !tbaa !22
  %18 = load ptr, ptr %5, align 8, !tbaa !15
  %19 = call noundef ptr @_ZNKSt7__cxx1112basic_stringIcSt11char_traitsIcESaIcEE5c_strEv(ptr noundef nonnull align 8 dereferenceable(32) %18) #17
  %20 = call ptr @__errno_location() #23
  %21 = load i32, ptr %20, align 4, !tbaa !43
  %22 = call ptr @strerror(i32 noundef %21) #17
  %23 = call i32 (ptr, ptr, ...) @fprintf(ptr noundef %17, ptr noundef @.str.24, ptr noundef %19, ptr noundef %22) #17
  store i1 false, ptr %3, align 1
  store i32 1, ptr %7, align 4
  br label %51

24:                                               ; preds = %2
  call void @llvm.lifetime.start.p0(i64 8, ptr %8) #17
  call void @_ZNSt10unique_ptrIi12close_deleteEC2IS0_vEEPi(ptr noundef nonnull align 8 dereferenceable(8) %8, ptr noundef %6) #17
  call void @llvm.lifetime.start.p0(i64 144, ptr %9) #17
  %25 = load i32, ptr %6, align 4, !tbaa !43
  %26 = call i32 @fstat(i32 noundef %25, ptr noundef %9) #17
  %27 = icmp ne i32 %26, 0
  br i1 %27, label %28, label %36

28:                                               ; preds = %24
  %29 = load ptr, ptr @stderr, align 8, !tbaa !22
  %30 = load ptr, ptr %5, align 8, !tbaa !15
  %31 = call noundef ptr @_ZNKSt7__cxx1112basic_stringIcSt11char_traitsIcESaIcEE5c_strEv(ptr noundef nonnull align 8 dereferenceable(32) %30) #17
  %32 = call ptr @__errno_location() #23
  %33 = load i32, ptr %32, align 4, !tbaa !43
  %34 = call ptr @strerror(i32 noundef %33) #17
  %35 = call i32 (ptr, ptr, ...) @fprintf(ptr noundef %29, ptr noundef @.str.25, ptr noundef %31, ptr noundef %34) #17
  store i1 false, ptr %3, align 1
  store i32 1, ptr %7, align 4
  br label %50

36:                                               ; preds = %24
  %37 = getelementptr inbounds nuw %struct.stat, ptr %9, i32 0, i32 3
  %38 = load i32, ptr %37, align 8, !tbaa !103
  %39 = and i32 %38, 61440
  %40 = icmp eq i32 %39, 32768
  br i1 %40, label %46, label %41

41:                                               ; preds = %36
  %42 = load ptr, ptr @stderr, align 8, !tbaa !22
  %43 = load ptr, ptr %5, align 8, !tbaa !15
  %44 = call noundef ptr @_ZNKSt7__cxx1112basic_stringIcSt11char_traitsIcESaIcEE5c_strEv(ptr noundef nonnull align 8 dereferenceable(32) %43) #17
  %45 = call i32 (ptr, ptr, ...) @fprintf(ptr noundef %42, ptr noundef @.str.26, ptr noundef %44) #17
  store i1 false, ptr %3, align 1
  store i32 1, ptr %7, align 4
  br label %50

46:                                               ; preds = %36
  %47 = load i32, ptr %6, align 4, !tbaa !43
  %48 = load ptr, ptr %4, align 8, !tbaa !101
  store i32 %47, ptr %48, align 4, !tbaa !43
  %49 = call noundef ptr @_ZNSt10unique_ptrIi12close_deleteE7releaseEv(ptr noundef nonnull align 8 dereferenceable(8) %8) #17
  store i1 true, ptr %3, align 1
  store i32 1, ptr %7, align 4
  br label %50

50:                                               ; preds = %46, %41, %28
  call void @llvm.lifetime.end.p0(i64 144, ptr %9) #17
  call void @_ZNSt10unique_ptrIi12close_deleteED2Ev(ptr noundef nonnull align 8 dereferenceable(8) %8) #17
  call void @llvm.lifetime.end.p0(i64 8, ptr %8) #17
  br label %51

51:                                               ; preds = %50, %16
  call void @llvm.lifetime.end.p0(i64 4, ptr %6) #17
  %52 = load i1, ptr %3, align 1
  ret i1 %52
}