; Function Attrs: mustprogress uwtable
define internal fastcc noundef zeroext i1 @_ZL8OpenFilePiRKNSt7__cxx1112basic_stringIcSt11char_traitsIcESaIcEEE(ptr noundef nonnull writeonly captures(none) initializes((0, 4)) %0, ptr noundef nonnull readonly align 8 captures(none) dereferenceable(32) %1) unnamed_addr #0 personality ptr @__gxx_personality_v0 {
  %3 = alloca %struct.stat, align 8
  store i32 -1, ptr %0, align 4, !tbaa !35
  %4 = load ptr, ptr %1, align 8, !tbaa !16
  %5 = tail call i32 (ptr, i32, ...) @open(ptr noundef %4, i32 noundef 0)
  %6 = icmp slt i32 %5, 0
  br i1 %6, label %7, label %14

7:                                                ; preds = %2
  %8 = load ptr, ptr @stderr, align 8, !tbaa !24
  %9 = load ptr, ptr %1, align 8, !tbaa !16
  %10 = tail call ptr @__errno_location() #29
  %11 = load i32, ptr %10, align 4, !tbaa !35
  %12 = tail call ptr @strerror(i32 noundef %11) #21
  %13 = tail call i32 (ptr, ptr, ...) @fprintf(ptr noundef %8, ptr noundef nonnull @.str.24, ptr noundef %9, ptr noundef %12) #23
  br label %_ZNSt10unique_ptrIi12close_deleteED2Ev.exit

14:                                               ; preds = %2
  call void @llvm.lifetime.start.p0(i64 144, ptr nonnull %3) #21
  %15 = call i32 @fstat(i32 noundef %5, ptr noundef nonnull %3) #21
  %.not = icmp eq i32 %15, 0
  br i1 %.not, label %23, label %16

16:                                               ; preds = %14
  %17 = load ptr, ptr @stderr, align 8, !tbaa !24
  %18 = load ptr, ptr %1, align 8, !tbaa !16
  %19 = tail call ptr @__errno_location() #29
  %20 = load i32, ptr %19, align 4, !tbaa !35
  %21 = tail call ptr @strerror(i32 noundef %20) #21
  %22 = tail call i32 (ptr, ptr, ...) @fprintf(ptr noundef %17, ptr noundef nonnull @.str.25, ptr noundef %18, ptr noundef %21) #23
  br label %33

23:                                               ; preds = %14
  %24 = getelementptr inbounds nuw i8, ptr %3, i64 24
  %25 = load i32, ptr %24, align 8, !tbaa !53
  %26 = and i32 %25, 61440
  %27 = icmp eq i32 %26, 32768
  br i1 %27, label %32, label %28

28:                                               ; preds = %23
  %29 = load ptr, ptr @stderr, align 8, !tbaa !24
  %30 = load ptr, ptr %1, align 8, !tbaa !16
  %31 = tail call i32 (ptr, ptr, ...) @fprintf(ptr noundef %29, ptr noundef nonnull @.str.26, ptr noundef %30) #23
  br label %33

32:                                               ; preds = %23
  store i32 %5, ptr %0, align 4, !tbaa !35
  call void @llvm.lifetime.end.p0(i64 144, ptr nonnull %3) #21
  br label %_ZNSt10unique_ptrIi12close_deleteED2Ev.exit

33:                                               ; preds = %28, %16
  call void @llvm.lifetime.end.p0(i64 144, ptr nonnull %3) #21
  %34 = invoke i32 @close(i32 noundef %5)
          to label %_ZNSt10unique_ptrIi12close_deleteED2Ev.exit unwind label %35

35:                                               ; preds = %33
  %36 = landingpad { ptr, i32 }
          catch ptr null
  %37 = extractvalue { ptr, i32 } %36, 0
  tail call void @__clang_call_terminate(ptr %37) #26
  unreachable

_ZNSt10unique_ptrIi12close_deleteED2Ev.exit:      ; preds = %33, %32, %7
  %.0 = phi i1 [ false, %7 ], [ true, %32 ], [ false, %33 ]
  ret i1 %.0
}